target datalayout = "e-m:e-p270:32:32-p271:32:32-p272:64:64-i64:64-i128:128-f80:128-n8:16:32:64-S128"
target triple = "x86_64-pc-linux-gnu"

; Function Attrs: nounwind uwtable
define i32 @cli_strbcasestr(ptr noundef %0, ptr noundef %1) #0 {
  %3 = alloca i32, align 4
  %4 = alloca ptr, align 8
  %5 = alloca ptr, align 8
  %6 = alloca ptr, align 8
  %7 = alloca i32, align 4
  %8 = alloca i32, align 4
  store ptr %0, ptr %4, align 8
  store ptr %1, ptr %5, align 8
  %9 = load ptr, ptr %4, align 8
  store ptr %9, ptr %6, align 8
  %10 = load ptr, ptr %4, align 8
  %11 = call i64 @strlen(ptr noundef %10) #7
  %12 = trunc i64 %11 to i32
  store i32 %12, ptr %7, align 4
  %13 = load ptr, ptr %5, align 8
  %14 = call i64 @strlen(ptr noundef %13) #7
  %15 = trunc i64 %14 to i32
  store i32 %15, ptr %8, align 4
  %16 = load i32, ptr %7, align 4
  %17 = load i32, ptr %8, align 4
  %18 = icmp slt i32 %16, %17
  br i1 %18, label %19, label %20

19:                                               ; preds = %2
  store i32 0, ptr %3, align 4
  br label %33

20:                                               ; preds = %2
  %21 = load i32, ptr %7, align 4
  %22 = load i32, ptr %8, align 4
  %23 = sub nsw i32 %21, %22
  %24 = load ptr, ptr %6, align 8
  %25 = sext i32 %23 to i64
  %26 = getelementptr inbounds i8, ptr %24, i64 %25
  store ptr %26, ptr %6, align 8
  %27 = load ptr, ptr %6, align 8
  %28 = load ptr, ptr %5, align 8
  %29 = call i32 @strcasecmp(ptr noundef %27, ptr noundef %28) #7
  %30 = icmp ne i32 %29, 0
  %31 = xor i1 %30, true
  %32 = zext i1 %31 to i32
  store i32 %32, ptr %3, align 4
  br label %33

33:                                               ; preds = %20, %19
  %34 = load i32, ptr %3, align 4
  ret i32 %34
}