; Function Attrs: mustprogress nofree nounwind willreturn memory(read) uwtable
define i32 @cli_strbcasestr(ptr nocapture noundef readonly %0, ptr nocapture noundef readonly %1) local_unnamed_addr #6 {
  %3 = tail call i64 @strlen(ptr noundef nonnull dereferenceable(1) %0) #26
  %4 = trunc i64 %3 to i32
  %5 = tail call i64 @strlen(ptr noundef nonnull dereferenceable(1) %1) #26
  %6 = trunc i64 %5 to i32
  %7 = icmp slt i32 %4, %6
  br i1 %7, label %14, label %8

8:                                                ; preds = %2
  %9 = sub i64 %3, %5
  %sext = shl i64 %9, 32
  %10 = ashr exact i64 %sext, 32
  %11 = getelementptr inbounds i8, ptr %0, i64 %10
  %12 = tail call i32 @strcasecmp(ptr noundef %11, ptr noundef %1) #26
  %.not = icmp eq i32 %12, 0
  %13 = zext i1 %.not to i32
  br label %14

14:                                               ; preds = %2, %8
  %.0 = phi i32 [ %13, %8 ], [ 0, %2 ]
  ret i32 %.0
}